; Function Attrs: nounwind uwtable
define hidden void @OnAudioStreamDestroy(ptr noundef readonly captures(address) %0) local_unnamed_addr #0 {
  %2 = load ptr, ptr getelementptr inbounds nuw (i8, ptr @current_audio, i64 136), align 8
  %.not = icmp eq ptr %2, null
  br i1 %.not, label %19, label %3

3:                                                ; preds = %1
  tail call void @SDL_LockRWLockForWriting_REAL(ptr noundef nonnull %2) #14
  %4 = getelementptr inbounds nuw i8, ptr %0, i64 216
  %5 = load ptr, ptr %4, align 8
  %.not10 = icmp eq ptr %5, null
  %.phi.trans.insert = getelementptr inbounds nuw i8, ptr %0, i64 224
  %.pre = load ptr, ptr %.phi.trans.insert, align 8
  br i1 %.not10, label %._crit_edge, label %6

6:                                                ; preds = %3
  %7 = getelementptr inbounds nuw i8, ptr %5, i64 224
  store ptr %.pre, ptr %7, align 8
  br label %._crit_edge

._crit_edge:                                      ; preds = %3, %6
  %8 = getelementptr inbounds nuw i8, ptr %0, i64 224
  %.not11 = icmp eq ptr %.pre, null
  br i1 %.not11, label %12, label %9

9:                                                ; preds = %._crit_edge
  %10 = load ptr, ptr %4, align 8
  %11 = getelementptr inbounds nuw i8, ptr %.pre, i64 216
  store ptr %10, ptr %11, align 8
  br label %12

12:                                               ; preds = %9, %._crit_edge
  %13 = load ptr, ptr getelementptr inbounds nuw (i8, ptr @current_audio, i64 152), align 8
  %14 = icmp eq ptr %0, %13
  br i1 %14, label %15, label %17

15:                                               ; preds = %12
  %16 = load ptr, ptr %8, align 8
  store ptr %16, ptr getelementptr inbounds nuw (i8, ptr @current_audio, i64 152), align 8
  br label %17

17:                                               ; preds = %15, %12
  %18 = load ptr, ptr getelementptr inbounds nuw (i8, ptr @current_audio, i64 136), align 8
  tail call void @SDL_UnlockRWLock_REAL(ptr noundef %18) #14
  br label %19

19:                                               ; preds = %17, %1
  ret void
}